target datalayout = "e-m:e-p270:32:32-p271:32:32-p272:64:64-i64:64-i128:128-f80:128-n8:16:32:64-S128"
target triple = "x86_64-pc-linux-gnu"

%struct._fvalue_t = type { ptr, %union.anon.1 }
%union.anon.1 = type { %struct._protocol_value_t }
%struct._protocol_value_t = type { ptr, i32, ptr, i8 }
%struct.ipv6_addr_and_prefix = type { %struct.e_in6_addr, i32 }
%struct.e_in6_addr = type { [16 x i8] }

@bitmasks = internal constant [9 x i8] c"\00\80\C0\E0\F0\F8\FC\FE\FF", align 1

; Function Attrs: nounwind null_pointer_is_valid sspstrong uwtable
define internal i32 @cmp_order(ptr noundef %0, ptr noundef %1, ptr noundef %2) #1 {
  %4 = alloca i32, align 4
  %5 = alloca ptr, align 8
  %6 = alloca ptr, align 8
  %7 = alloca ptr, align 8
  %8 = alloca ptr, align 8
  %9 = alloca ptr, align 8
  %10 = alloca i32, align 4
  %11 = alloca i32, align 4
  %12 = alloca i32, align 4
  %13 = alloca i32, align 4
  %14 = alloca i32, align 4
  %15 = alloca i32, align 4
  %16 = alloca i32, align 4
  store ptr %0, ptr %5, align 8
  store ptr %1, ptr %6, align 8
  store ptr %2, ptr %7, align 8
  call void @llvm.lifetime.start.p0(i64 8, ptr %8) #7
  %17 = load ptr, ptr %5, align 8
  %18 = getelementptr inbounds nuw %struct._fvalue_t, ptr %17, i32 0, i32 1
  store ptr %18, ptr %8, align 8
  call void @llvm.lifetime.start.p0(i64 8, ptr %9) #7
  %19 = load ptr, ptr %6, align 8
  %20 = getelementptr inbounds nuw %struct._fvalue_t, ptr %19, i32 0, i32 1
  store ptr %20, ptr %9, align 8
  call void @llvm.lifetime.start.p0(i64 4, ptr %10) #7
  call void @llvm.lifetime.start.p0(i64 4, ptr %11) #7
  store i32 0, ptr %11, align 4
  %21 = load ptr, ptr %8, align 8
  %22 = getelementptr inbounds nuw %struct.ipv6_addr_and_prefix, ptr %21, i32 0, i32 1
  %23 = load i32, ptr %22, align 4
  %24 = load ptr, ptr %9, align 8
  %25 = getelementptr inbounds nuw %struct.ipv6_addr_and_prefix, ptr %24, i32 0, i32 1
  %26 = load i32, ptr %25, align 4
  %27 = icmp ult i32 %23, %26
  br i1 %27, label %28, label %32

28:                                               ; preds = %3
  %29 = load ptr, ptr %8, align 8
  %30 = getelementptr inbounds nuw %struct.ipv6_addr_and_prefix, ptr %29, i32 0, i32 1
  %31 = load i32, ptr %30, align 4
  br label %36

32:                                               ; preds = %3
  %33 = load ptr, ptr %9, align 8
  %34 = getelementptr inbounds nuw %struct.ipv6_addr_and_prefix, ptr %33, i32 0, i32 1
  %35 = load i32, ptr %34, align 4
  br label %36

36:                                               ; preds = %32, %28
  %37 = phi i32 [ %31, %28 ], [ %35, %32 ]
  store i32 %37, ptr %10, align 4
  %38 = load i32, ptr %10, align 4
  %39 = icmp ult i32 %38, 128
  br i1 %39, label %40, label %42

40:                                               ; preds = %36
  %41 = load i32, ptr %10, align 4
  br label %43

42:                                               ; preds = %36
  br label %43

43:                                               ; preds = %42, %40
  %44 = phi i32 [ %41, %40 ], [ 128, %42 ]
  store i32 %44, ptr %10, align 4
  br label %45

45:                                               ; preds = %80, %43
  %46 = load i32, ptr %10, align 4
  %47 = icmp uge i32 %46, 8
  br i1 %47, label %48, label %81

48:                                               ; preds = %45
  call void @llvm.lifetime.start.p0(i64 4, ptr %12) #7
  %49 = load ptr, ptr %8, align 8
  %50 = getelementptr inbounds nuw %struct.ipv6_addr_and_prefix, ptr %49, i32 0, i32 0
  %51 = getelementptr inbounds nuw %struct.e_in6_addr, ptr %50, i32 0, i32 0
  %52 = load i32, ptr %11, align 4
  %53 = sext i32 %52 to i64
  %54 = getelementptr [16 x i8], ptr %51, i64 0, i64 %53
  %55 = load i8, ptr %54, align 1
  %56 = zext i8 %55 to i32
  store i32 %56, ptr %12, align 4
  call void @llvm.lifetime.start.p0(i64 4, ptr %13) #7
  %57 = load ptr, ptr %9, align 8
  %58 = getelementptr inbounds nuw %struct.ipv6_addr_and_prefix, ptr %57, i32 0, i32 0
  %59 = getelementptr inbounds nuw %struct.e_in6_addr, ptr %58, i32 0, i32 0
  %60 = load i32, ptr %11, align 4
  %61 = sext i32 %60 to i64
  %62 = getelementptr [16 x i8], ptr %59, i64 0, i64 %61
  %63 = load i8, ptr %62, align 1
  %64 = zext i8 %63 to i32
  store i32 %64, ptr %13, align 4
  %65 = load i32, ptr %12, align 4
  %66 = load i32, ptr %13, align 4
  %67 = icmp ne i32 %65, %66
  br i1 %67, label %68, label %73

68:                                               ; preds = %48
  %69 = load i32, ptr %12, align 4
  %70 = load i32, ptr %13, align 4
  %71 = sub i32 %69, %70
  %72 = load ptr, ptr %7, align 8
  store i32 %71, ptr %72, align 4
  store i32 0, ptr %4, align 4
  store i32 1, ptr %14, align 4
  br label %78

73:                                               ; preds = %48
  %74 = load i32, ptr %10, align 4
  %75 = sub i32 %74, 8
  store i32 %75, ptr %10, align 4
  %76 = load i32, ptr %11, align 4
  %77 = add i32 %76, 1
  store i32 %77, ptr %11, align 4
  store i32 0, ptr %14, align 4
  br label %78

78:                                               ; preds = %73, %68
  call void @llvm.lifetime.end.p0(i64 4, ptr %13) #7
  call void @llvm.lifetime.end.p0(i64 4, ptr %12) #7
  %79 = load i32, ptr %14, align 4
  switch i32 %79, label %127 [
    i32 0, label %80
  ]

80:                                               ; preds = %78
  br label %45, !llvm.loop !6

81:                                               ; preds = %45
  %82 = load i32, ptr %10, align 4
  %83 = icmp ne i32 %82, 0
  br i1 %83, label %84, label %125

84:                                               ; preds = %81
  call void @llvm.lifetime.start.p0(i64 4, ptr %15) #7
  %85 = load ptr, ptr %8, align 8
  %86 = getelementptr inbounds nuw %struct.ipv6_addr_and_prefix, ptr %85, i32 0, i32 0
  %87 = getelementptr inbounds nuw %struct.e_in6_addr, ptr %86, i32 0, i32 0
  %88 = load i32, ptr %11, align 4
  %89 = sext i32 %88 to i64
  %90 = getelementptr [16 x i8], ptr %87, i64 0, i64 %89
  %91 = load i8, ptr %90, align 1
  %92 = zext i8 %91 to i32
  %93 = load i32, ptr %10, align 4
  %94 = zext i32 %93 to i64
  %95 = getelementptr [9 x i8], ptr @bitmasks, i64 0, i64 %94
  %96 = load i8, ptr %95, align 1
  %97 = zext i8 %96 to i32
  %98 = and i32 %92, %97
  store i32 %98, ptr %15, align 4
  call void @llvm.lifetime.start.p0(i64 4, ptr %16) #7
  %99 = load ptr, ptr %9, align 8
  %100 = getelementptr inbounds nuw %struct.ipv6_addr_and_prefix, ptr %99, i32 0, i32 0
  %101 = getelementptr inbounds nuw %struct.e_in6_addr, ptr %100, i32 0, i32 0
  %102 = load i32, ptr %11, align 4
  %103 = sext i32 %102 to i64
  %104 = getelementptr [16 x i8], ptr %101, i64 0, i64 %103
  %105 = load i8, ptr %104, align 1
  %106 = zext i8 %105 to i32
  %107 = load i32, ptr %10, align 4
  %108 = zext i32 %107 to i64
  %109 = getelementptr [9 x i8], ptr @bitmasks, i64 0, i64 %108
  %110 = load i8, ptr %109, align 1
  %111 = zext i8 %110 to i32
  %112 = and i32 %106, %111
  store i32 %112, ptr %16, align 4
  %113 = load i32, ptr %15, align 4
  %114 = load i32, ptr %16, align 4
  %115 = icmp ne i32 %113, %114
  br i1 %115, label %116, label %121

116:                                              ; preds = %84
  %117 = load i32, ptr %15, align 4
  %118 = load i32, ptr %16, align 4
  %119 = sub i32 %117, %118
  %120 = load ptr, ptr %7, align 8
  store i32 %119, ptr %120, align 4
  store i32 0, ptr %4, align 4
  store i32 1, ptr %14, align 4
  br label %122

121:                                              ; preds = %84
  store i32 0, ptr %14, align 4
  br label %122

122:                                              ; preds = %121, %116
  call void @llvm.lifetime.end.p0(i64 4, ptr %16) #7
  call void @llvm.lifetime.end.p0(i64 4, ptr %15) #7
  %123 = load i32, ptr %14, align 4
  switch i32 %123, label %127 [
    i32 0, label %124
  ]

124:                                              ; preds = %122
  br label %125

125:                                              ; preds = %124, %81
  %126 = load ptr, ptr %7, align 8
  store i32 0, ptr %126, align 4
  store i32 0, ptr %4, align 4
  store i32 1, ptr %14, align 4
  br label %127

127:                                              ; preds = %125, %122, %78
  call void @llvm.lifetime.end.p0(i64 4, ptr %11) #7
  call void @llvm.lifetime.end.p0(i64 4, ptr %10) #7
  call void @llvm.lifetime.end.p0(i64 8, ptr %9) #7
  call void @llvm.lifetime.end.p0(i64 8, ptr %8) #7
  %128 = load i32, ptr %4, align 4
  ret i32 %128
}