; Function Attrs: nofree norecurse nosync nounwind null_pointer_is_valid sspstrong memory(argmem: readwrite) uwtable
define internal noundef i32 @cmp_order(ptr noundef readonly captures(none) %0, ptr noundef readonly captures(none) %1, ptr noundef writeonly captures(none) %2) #3 {
  %4 = getelementptr inbounds nuw i8, ptr %0, i64 8
  %5 = getelementptr inbounds nuw i8, ptr %1, i64 8
  %6 = getelementptr inbounds nuw i8, ptr %0, i64 24
  %7 = load i32, ptr %6, align 4
  %8 = getelementptr inbounds nuw i8, ptr %1, i64 24
  %9 = load i32, ptr %8, align 4
  %. = tail call i32 @llvm.umin.i32(i32 %7, i32 %9)
  %10 = tail call i32 @llvm.umin.i32(i32 %., i32 128)
  %11 = icmp ugt i32 %., 7
  br i1 %11, label %.lr.ph, label %._crit_edge

.lr.ph:                                           ; preds = %3, %20
  %.03656 = phi i32 [ %21, %20 ], [ %10, %3 ]
  %.04055 = phi i32 [ %22, %20 ], [ 0, %3 ]
  %12 = zext nneg i32 %.04055 to i64
  %13 = getelementptr [16 x i8], ptr %4, i64 0, i64 %12
  %14 = load i8, ptr %13, align 1
  %15 = getelementptr [16 x i8], ptr %5, i64 0, i64 %12
  %16 = load i8, ptr %15, align 1
  %.not49 = icmp eq i8 %14, %16
  br i1 %.not49, label %20, label %.thread

.thread:                                          ; preds = %.lr.ph
  %17 = zext i8 %16 to i32
  %18 = zext i8 %14 to i32
  %19 = sub nsw i32 %18, %17
  br label %.critedge

20:                                               ; preds = %.lr.ph
  %21 = add i32 %.03656, -8
  %22 = add nuw nsw i32 %.04055, 1
  %23 = icmp ugt i32 %21, 7
  br i1 %23, label %.lr.ph, label %._crit_edge.loopexit

._crit_edge.loopexit:                             ; preds = %20
  %24 = zext nneg i32 %22 to i64
  br label %._crit_edge

._crit_edge:                                      ; preds = %._crit_edge.loopexit, %3
  %.040.lcssa = phi i64 [ 0, %3 ], [ %24, %._crit_edge.loopexit ]
  %.036.lcssa = phi i32 [ %10, %3 ], [ %21, %._crit_edge.loopexit ]
  %.not = icmp eq i32 %.036.lcssa, 0
  br i1 %.not, label %.critedge, label %25

25:                                               ; preds = %._crit_edge
  %26 = getelementptr [16 x i8], ptr %4, i64 0, i64 %.040.lcssa
  %27 = load i8, ptr %26, align 1
  %28 = zext nneg i32 %.036.lcssa to i64
  %29 = getelementptr [9 x i8], ptr @bitmasks, i64 0, i64 %28
  %30 = load i8, ptr %29, align 1
  %31 = and i8 %30, %27
  %32 = getelementptr [16 x i8], ptr %5, i64 0, i64 %.040.lcssa
  %33 = load i8, ptr %32, align 1
  %34 = and i8 %33, %30
  %.not48 = icmp eq i8 %31, %34
  br i1 %.not48, label %.critedge, label %35

35:                                               ; preds = %25
  %36 = zext i8 %34 to i32
  %37 = zext i8 %31 to i32
  %38 = sub nsw i32 %37, %36
  br label %.critedge

.critedge:                                        ; preds = %._crit_edge, %25, %.thread, %35
  %.sink = phi i32 [ %19, %.thread ], [ %38, %35 ], [ 0, %25 ], [ 0, %._crit_edge ]
  store i32 %.sink, ptr %2, align 4
  ret i32 0
}